target datalayout = "e-m:e-p270:32:32-p271:32:32-p272:64:64-i64:64-i128:128-f80:128-n8:16:32:64-S128"
target triple = "x86_64-pc-linux-gnu"

%struct._packet_info = type { ptr, ptr, i32, i32, %struct.nstime_t, %struct.nstime_t, %struct.nstime_t, i8, ptr, ptr, ptr, ptr, %struct._address, %struct._address, %struct._address, %struct._address, %struct._address, %struct._address, i32, ptr, i8, [3 x i8], %struct.anon, i32, i32, i32, i32, ptr, i8, ptr, ptr, i16, i16, i32, i32, i16, i32, i32, ptr, ptr, ptr, i8, i8, i16, i16, i16, i32, i16, i16, ptr, ptr, ptr, ptr, ptr, i32, i32 }
%struct.nstime_t = type { i64, i32 }
%struct._address = type { i32, i32, ptr, ptr }
%struct.anon = type { i8, [3 x i8] }

@hf_magic_number = internal global i32 0, align 4
@hf_cpha_protocol_ver = internal global i32 0, align 4
@hf_cluster_number = internal global i32 0, align 4
@hf_opcode = internal global i32 0, align 4
@hf_payload = internal global i32 0, align 4
@hf_src_if_num = internal global i32 0, align 4
@hf_random_id = internal global i32 0, align 4
@hf_src_machine_id = internal global i32 0, align 4
@hf_dst_machine_id = internal global i32 0, align 4
@hf_policy_id = internal global i32 0, align 4
@hf_filler = internal global i32 0, align 4
@hf_unknown_data = internal global i32 0, align 4
@hf_status = internal global i32 0, align 4
@hf_ifn = internal global i32 0, align 4
@ett_cphap = internal global i32 0, align 4
@.str.72 = private unnamed_addr constant [5 x i8] c"CPHA\00", align 1
@proto_cphap = internal global i32 0, align 4
@.str.210 = private unnamed_addr constant [12 x i8] c"CPHAv%d: %s\00", align 1
@.str.211 = private unnamed_addr constant [11 x i8] c"Unknown %d\00", align 1
@.str.212 = private unnamed_addr constant [6 x i8] c" - %s\00", align 1

; Function Attrs: null_pointer_is_valid sspstrong uwtable
define internal i32 @dissect_policy_change(ptr noundef %0, i32 noundef %1, ptr noundef %2) #0 {
  %4 = alloca ptr, align 8
  %5 = alloca i32, align 4
  %6 = alloca ptr, align 8
  store ptr %0, ptr %4, align 8
  store i32 %1, ptr %5, align 4
  store ptr %2, ptr %6, align 8
  %7 = load ptr, ptr %6, align 8
  %8 = load i32, ptr @hf_status, align 4
  %9 = load ptr, ptr %4, align 8
  %10 = load i32, ptr %5, align 4
  %11 = call ptr @proto_tree_add_item(ptr noundef %7, i32 noundef %8, ptr noundef %9, i32 noundef %10, i32 noundef 4, i32 noundef 0)
  %12 = load i32, ptr %5, align 4
  %13 = add i32 %12, 4
  store i32 %13, ptr %5, align 4
  %14 = load i32, ptr %5, align 4
  ret i32 %14
}

; Function Attrs: null_pointer_is_valid sspstrong uwtable
define internal i32 @dissect_probe(ptr noundef %0, i32 noundef %1, ptr noundef %2) #0 {
  %4 = alloca ptr, align 8
  %5 = alloca i32, align 4
  %6 = alloca ptr, align 8
  store ptr %0, ptr %4, align 8
  store i32 %1, ptr %5, align 4
  store ptr %2, ptr %6, align 8
  %7 = load ptr, ptr %6, align 8
  %8 = load i32, ptr @hf_ifn, align 4
  %9 = load ptr, ptr %4, align 8
  %10 = load i32, ptr %5, align 4
  %11 = call ptr @proto_tree_add_item(ptr noundef %7, i32 noundef %8, ptr noundef %9, i32 noundef %10, i32 noundef 4, i32 noundef 0)
  %12 = load i32, ptr %5, align 4
  %13 = add i32 %12, 4
  store i32 %13, ptr %5, align 4
  %14 = load i32, ptr %5, align 4
  ret i32 %14
}

; Function Attrs: null_pointer_is_valid sspstrong uwtable
define internal i32 @dissect_cpha(ptr noundef %0, ptr noundef %1, ptr noundef %2, ptr noundef %3) #0 {
  %5 = alloca i32, align 4
  %6 = alloca ptr, align 8
  %7 = alloca ptr, align 8
  %8 = alloca ptr, align 8
  %9 = alloca ptr, align 8
  %10 = alloca i32, align 4
  %11 = alloca ptr, align 8
  %12 = alloca ptr, align 8
  %13 = alloca ptr, align 8
  %14 = alloca ptr, align 8
  %15 = alloca i16, align 2
  %16 = alloca i16, align 2
  %17 = alloca i16, align 2
  %18 = alloca i32, align 4
  store ptr %0, ptr %6, align 8
  store ptr %1, ptr %7, align 8
  store ptr %2, ptr %8, align 8
  store ptr %3, ptr %9, align 8
  call void @llvm.lifetime.start.p0(i64 4, ptr %10) #3
  store i32 0, ptr %10, align 4
  call void @llvm.lifetime.start.p0(i64 8, ptr %11) #3
  call void @llvm.lifetime.start.p0(i64 8, ptr %12) #3
  call void @llvm.lifetime.start.p0(i64 8, ptr %13) #3
  store ptr null, ptr %13, align 8
  call void @llvm.lifetime.start.p0(i64 8, ptr %14) #3
  store ptr null, ptr %14, align 8
  call void @llvm.lifetime.start.p0(i64 2, ptr %15) #3
  call void @llvm.lifetime.start.p0(i64 2, ptr %16) #3
  call void @llvm.lifetime.start.p0(i64 2, ptr %17) #3
  %19 = load ptr, ptr %6, align 8
  %20 = call i32 @tvb_reported_length(ptr noundef %19)
  %21 = icmp ult i32 %20, 4
  br i1 %21, label %22, label %23

22:                                               ; preds = %4
  store i32 0, ptr %5, align 4
  store i32 1, ptr %18, align 4
  br label %184

23:                                               ; preds = %4
  %24 = load ptr, ptr %6, align 8
  %25 = call zeroext i16 @tvb_get_ntohs(ptr noundef %24, i32 noundef 0)
  store i16 %25, ptr %16, align 2
  %26 = load ptr, ptr %6, align 8
  %27 = call zeroext i16 @tvb_get_ntohs(ptr noundef %26, i32 noundef 2)
  store i16 %27, ptr %17, align 2
  %28 = load i16, ptr %16, align 2
  %29 = zext i16 %28 to i32
  %30 = icmp ne i32 %29, 6800
  br i1 %30, label %31, label %32

31:                                               ; preds = %23
  store i32 0, ptr %5, align 4
  store i32 1, ptr %18, align 4
  br label %184

32:                                               ; preds = %23
  %33 = load ptr, ptr %7, align 8
  %34 = getelementptr inbounds nuw %struct._packet_info, ptr %33, i32 0, i32 1
  %35 = load ptr, ptr %34, align 8
  call void @col_set_str(ptr noundef %35, i32 noundef 35, ptr noundef @.str.72)
  %36 = load ptr, ptr %7, align 8
  %37 = getelementptr inbounds nuw %struct._packet_info, ptr %36, i32 0, i32 1
  %38 = load ptr, ptr %37, align 8
  call void @col_clear(ptr noundef %38, i32 noundef 25)
  %39 = load ptr, ptr %6, align 8
  %40 = call zeroext i16 @tvb_get_ntohs(ptr noundef %39, i32 noundef 6)
  store i16 %40, ptr %15, align 2
  %41 = load ptr, ptr %7, align 8
  %42 = getelementptr inbounds nuw %struct._packet_info, ptr %41, i32 0, i32 1
  %43 = load ptr, ptr %42, align 8
  %44 = load i16, ptr %17, align 2
  %45 = zext i16 %44 to i32
  %46 = load i16, ptr %15, align 2
  %47 = zext i16 %46 to i32
  %48 = call ptr @val_to_str(i32 noundef %47, ptr noundef @opcode_type_vals, ptr noundef @.str.211)
  call void (ptr, i32, ptr, ...) @col_add_fstr(ptr noundef %43, i32 noundef 25, ptr noundef @.str.210, i32 noundef %45, ptr noundef %48)
  %49 = load ptr, ptr %8, align 8
  %50 = icmp ne ptr %49, null
  br i1 %50, label %51, label %181

51:                                               ; preds = %32
  %52 = load ptr, ptr %8, align 8
  %53 = load i32, ptr @proto_cphap, align 4
  %54 = load ptr, ptr %6, align 8
  %55 = load i32, ptr %10, align 4
  %56 = call ptr @proto_tree_add_item(ptr noundef %52, i32 noundef %53, ptr noundef %54, i32 noundef %55, i32 noundef -1, i32 noundef 0)
  store ptr %56, ptr %11, align 8
  %57 = load ptr, ptr %11, align 8
  %58 = load i32, ptr @ett_cphap, align 4
  %59 = call ptr @proto_item_add_subtree(ptr noundef %57, i32 noundef %58)
  store ptr %59, ptr %13, align 8
  %60 = load ptr, ptr %13, align 8
  %61 = load i32, ptr @hf_magic_number, align 4
  %62 = load ptr, ptr %6, align 8
  %63 = load i32, ptr %10, align 4
  %64 = call ptr @proto_tree_add_item(ptr noundef %60, i32 noundef %61, ptr noundef %62, i32 noundef %63, i32 noundef 2, i32 noundef 0)
  %65 = load i32, ptr %10, align 4
  %66 = add i32 %65, 2
  store i32 %66, ptr %10, align 4
  %67 = load ptr, ptr %13, align 8
  %68 = load i32, ptr @hf_cpha_protocol_ver, align 4
  %69 = load ptr, ptr %6, align 8
  %70 = load i32, ptr %10, align 4
  %71 = call ptr @proto_tree_add_item(ptr noundef %67, i32 noundef %68, ptr noundef %69, i32 noundef %70, i32 noundef 2, i32 noundef 0)
  %72 = load i32, ptr %10, align 4
  %73 = add i32 %72, 2
  store i32 %73, ptr %10, align 4
  %74 = load ptr, ptr %13, align 8
  %75 = load i32, ptr @hf_cluster_number, align 4
  %76 = load ptr, ptr %6, align 8
  %77 = load i32, ptr %10, align 4
  %78 = call ptr @proto_tree_add_item(ptr noundef %74, i32 noundef %75, ptr noundef %76, i32 noundef %77, i32 noundef 2, i32 noundef 0)
  %79 = load i32, ptr %10, align 4
  %80 = add i32 %79, 2
  store i32 %80, ptr %10, align 4
  %81 = load ptr, ptr %13, align 8
  %82 = load i32, ptr @hf_opcode, align 4
  %83 = load ptr, ptr %6, align 8
  %84 = load i32, ptr %10, align 4
  %85 = call ptr @proto_tree_add_item(ptr noundef %81, i32 noundef %82, ptr noundef %83, i32 noundef %84, i32 noundef 2, i32 noundef 0)
  %86 = load i32, ptr %10, align 4
  %87 = add i32 %86, 2
  store i32 %87, ptr %10, align 4
  %88 = load ptr, ptr %13, align 8
  %89 = load i32, ptr @hf_src_if_num, align 4
  %90 = load ptr, ptr %6, align 8
  %91 = load i32, ptr %10, align 4
  %92 = call ptr @proto_tree_add_item(ptr noundef %88, i32 noundef %89, ptr noundef %90, i32 noundef %91, i32 noundef 2, i32 noundef 0)
  %93 = load i32, ptr %10, align 4
  %94 = add i32 %93, 2
  store i32 %94, ptr %10, align 4
  %95 = load ptr, ptr %13, align 8
  %96 = load i32, ptr @hf_random_id, align 4
  %97 = load ptr, ptr %6, align 8
  %98 = load i32, ptr %10, align 4
  %99 = call ptr @proto_tree_add_item(ptr noundef %95, i32 noundef %96, ptr noundef %97, i32 noundef %98, i32 noundef 2, i32 noundef 0)
  %100 = load i32, ptr %10, align 4
  %101 = add i32 %100, 2
  store i32 %101, ptr %10, align 4
  %102 = load ptr, ptr %13, align 8
  %103 = load i32, ptr @hf_src_machine_id, align 4
  %104 = load ptr, ptr %6, align 8
  %105 = load i32, ptr %10, align 4
  %106 = call ptr @proto_tree_add_item(ptr noundef %102, i32 noundef %103, ptr noundef %104, i32 noundef %105, i32 noundef 2, i32 noundef 0)
  %107 = load i32, ptr %10, align 4
  %108 = add i32 %107, 2
  store i32 %108, ptr %10, align 4
  %109 = load ptr, ptr %13, align 8
  %110 = load i32, ptr @hf_dst_machine_id, align 4
  %111 = load ptr, ptr %6, align 8
  %112 = load i32, ptr %10, align 4
  %113 = call ptr @proto_tree_add_item(ptr noundef %109, i32 noundef %110, ptr noundef %111, i32 noundef %112, i32 noundef 2, i32 noundef 0)
  %114 = load i32, ptr %10, align 4
  %115 = add i32 %114, 2
  store i32 %115, ptr %10, align 4
  %116 = load i16, ptr %17, align 2
  %117 = zext i16 %116 to i32
  %118 = icmp ne i32 %117, 1
  br i1 %118, label %119, label %134

119:                                              ; preds = %51
  %120 = load ptr, ptr %13, align 8
  %121 = load i32, ptr @hf_policy_id, align 4
  %122 = load ptr, ptr %6, align 8
  %123 = load i32, ptr %10, align 4
  %124 = call ptr @proto_tree_add_item(ptr noundef %120, i32 noundef %121, ptr noundef %122, i32 noundef %123, i32 noundef 2, i32 noundef 0)
  %125 = load i32, ptr %10, align 4
  %126 = add i32 %125, 2
  store i32 %126, ptr %10, align 4
  %127 = load ptr, ptr %13, align 8
  %128 = load i32, ptr @hf_filler, align 4
  %129 = load ptr, ptr %6, align 8
  %130 = load i32, ptr %10, align 4
  %131 = call ptr @proto_tree_add_item(ptr noundef %127, i32 noundef %128, ptr noundef %129, i32 noundef %130, i32 noundef 2, i32 noundef 0)
  %132 = load i32, ptr %10, align 4
  %133 = add i32 %132, 2
  store i32 %133, ptr %10, align 4
  br label %134

134:                                              ; preds = %119, %51
  %135 = load ptr, ptr %13, align 8
  %136 = load i32, ptr @hf_payload, align 4
  %137 = load ptr, ptr %6, align 8
  %138 = load i32, ptr %10, align 4
  %139 = call ptr @proto_tree_add_item(ptr noundef %135, i32 noundef %136, ptr noundef %137, i32 noundef %138, i32 noundef -1, i32 noundef 0)
  store ptr %139, ptr %12, align 8
  %140 = load ptr, ptr %12, align 8
  %141 = load i16, ptr %15, align 2
  %142 = zext i16 %141 to i32
  %143 = call ptr @val_to_str(i32 noundef %142, ptr noundef @opcode_type_vals, ptr noundef @.str.211)
  call void (ptr, ptr, ...) @proto_item_append_text(ptr noundef %140, ptr noundef @.str.212, ptr noundef %143)
  %144 = load ptr, ptr %12, align 8
  %145 = load i32, ptr @ett_cphap, align 4
  %146 = call ptr @proto_item_add_subtree(ptr noundef %144, i32 noundef %145)
  store ptr %146, ptr %14, align 8
  %147 = load i16, ptr %15, align 2
  %148 = zext i16 %147 to i32
  switch i32 %148, label %174 [
    i32 1, label %149
    i32 2, label %180
    i32 3, label %154
    i32 4, label %154
    i32 5, label %180
    i32 6, label %159
    i32 7, label %164
    i32 9, label %169
  ]

149:                                              ; preds = %134
  %150 = load ptr, ptr %6, align 8
  %151 = load i32, ptr %10, align 4
  %152 = load ptr, ptr %14, align 8
  %153 = call i32 @dissect_my_state(ptr noundef %150, i32 noundef %151, ptr noundef %152)
  br label %180

154:                                              ; preds = %134, %134
  %155 = load ptr, ptr %6, align 8
  %156 = load i32, ptr %10, align 4
  %157 = load ptr, ptr %14, align 8
  %158 = call i32 @dissect_probe(ptr noundef %155, i32 noundef %156, ptr noundef %157)
  br label %180

159:                                              ; preds = %134
  %160 = load ptr, ptr %6, align 8
  %161 = load i32, ptr %10, align 4
  %162 = load ptr, ptr %14, align 8
  %163 = call i32 @dissect_conf_reply(ptr noundef %160, i32 noundef %161, ptr noundef %162)
  br label %180

164:                                              ; preds = %134
  %165 = load ptr, ptr %6, align 8
  %166 = load i32, ptr %10, align 4
  %167 = load ptr, ptr %14, align 8
  %168 = call i32 @dissect_lb_conf(ptr noundef %165, i32 noundef %166, ptr noundef %167)
  br label %180

169:                                              ; preds = %134
  %170 = load ptr, ptr %6, align 8
  %171 = load i32, ptr %10, align 4
  %172 = load ptr, ptr %14, align 8
  %173 = call i32 @dissect_policy_change(ptr noundef %170, i32 noundef %171, ptr noundef %172)
  br label %180

174:                                              ; preds = %134
  %175 = load ptr, ptr %14, align 8
  %176 = load i32, ptr @hf_unknown_data, align 4
  %177 = load ptr, ptr %6, align 8
  %178 = load i32, ptr %10, align 4
  %179 = call ptr @proto_tree_add_item(ptr noundef %175, i32 noundef %176, ptr noundef %177, i32 noundef %178, i32 noundef -1, i32 noundef 0)
  br label %180

180:                                              ; preds = %174, %169, %164, %159, %134, %154, %134, %149
  br label %181

181:                                              ; preds = %180, %32
  %182 = load ptr, ptr %6, align 8
  %183 = call i32 @tvb_reported_length(ptr noundef %182)
  store i32 %183, ptr %5, align 4
  store i32 1, ptr %18, align 4
  br label %184

184:                                              ; preds = %181, %31, %22
  call void @llvm.lifetime.end.p0(i64 2, ptr %17) #3
  call void @llvm.lifetime.end.p0(i64 2, ptr %16) #3
  call void @llvm.lifetime.end.p0(i64 2, ptr %15) #3
  call void @llvm.lifetime.end.p0(i64 8, ptr %14) #3
  call void @llvm.lifetime.end.p0(i64 8, ptr %13) #3
  call void @llvm.lifetime.end.p0(i64 8, ptr %12) #3
  call void @llvm.lifetime.end.p0(i64 8, ptr %11) #3
  call void @llvm.lifetime.end.p0(i64 4, ptr %10) #3
  %185 = load i32, ptr %5, align 4
  ret i32 %185
}