; Function Attrs: null_pointer_is_valid sspstrong uwtable
define internal i32 @dissect_cpha(ptr noundef %0, ptr noundef readonly captures(none) %1, ptr noundef %2, ptr readnone captures(none) %3) #0 {
  %5 = tail call i32 @tvb_reported_length(ptr noundef %0)
  %6 = icmp ult i32 %5, 4
  br i1 %6, label %65, label %7

7:                                                ; preds = %4
  %8 = tail call zeroext i16 @tvb_get_ntohs(ptr noundef %0, i32 noundef 0)
  %9 = tail call zeroext i16 @tvb_get_ntohs(ptr noundef %0, i32 noundef 2)
  %.not = icmp eq i16 %8, 6800
  br i1 %.not, label %10, label %65

10:                                               ; preds = %7
  %11 = getelementptr inbounds nuw i8, ptr %1, i64 8
  %12 = load ptr, ptr %11, align 8
  tail call void @col_set_str(ptr noundef %12, i32 noundef 35, ptr noundef nonnull @.str.72)
  %13 = load ptr, ptr %11, align 8
  tail call void @col_clear(ptr noundef %13, i32 noundef 25)
  %14 = tail call zeroext i16 @tvb_get_ntohs(ptr noundef %0, i32 noundef 6)
  %15 = load ptr, ptr %11, align 8
  %16 = zext i16 %9 to i32
  %17 = zext i16 %14 to i32
  %18 = tail call ptr @val_to_str(i32 noundef %17, ptr noundef nonnull @opcode_type_vals, ptr noundef nonnull @.str.211)
  tail call void (ptr, i32, ptr, ...) @col_add_fstr(ptr noundef %15, i32 noundef 25, ptr noundef nonnull @.str.210, i32 noundef %16, ptr noundef %18)
  %.not84 = icmp eq ptr %2, null
  br i1 %.not84, label %63, label %19

19:                                               ; preds = %10
  %20 = load i32, ptr @proto_cphap, align 4
  %21 = tail call ptr @proto_tree_add_item(ptr noundef nonnull %2, i32 noundef %20, ptr noundef %0, i32 noundef 0, i32 noundef -1, i32 noundef 0)
  %22 = load i32, ptr @ett_cphap, align 4
  %23 = tail call ptr @proto_item_add_subtree(ptr noundef %21, i32 noundef %22)
  %24 = load i32, ptr @hf_magic_number, align 4
  %25 = tail call ptr @proto_tree_add_item(ptr noundef %23, i32 noundef %24, ptr noundef %0, i32 noundef 0, i32 noundef 2, i32 noundef 0)
  %26 = load i32, ptr @hf_cpha_protocol_ver, align 4
  %27 = tail call ptr @proto_tree_add_item(ptr noundef %23, i32 noundef %26, ptr noundef %0, i32 noundef 2, i32 noundef 2, i32 noundef 0)
  %28 = load i32, ptr @hf_cluster_number, align 4
  %29 = tail call ptr @proto_tree_add_item(ptr noundef %23, i32 noundef %28, ptr noundef %0, i32 noundef 4, i32 noundef 2, i32 noundef 0)
  %30 = load i32, ptr @hf_opcode, align 4
  %31 = tail call ptr @proto_tree_add_item(ptr noundef %23, i32 noundef %30, ptr noundef %0, i32 noundef 6, i32 noundef 2, i32 noundef 0)
  %32 = load i32, ptr @hf_src_if_num, align 4
  %33 = tail call ptr @proto_tree_add_item(ptr noundef %23, i32 noundef %32, ptr noundef %0, i32 noundef 8, i32 noundef 2, i32 noundef 0)
  %34 = load i32, ptr @hf_random_id, align 4
  %35 = tail call ptr @proto_tree_add_item(ptr noundef %23, i32 noundef %34, ptr noundef %0, i32 noundef 10, i32 noundef 2, i32 noundef 0)
  %36 = load i32, ptr @hf_src_machine_id, align 4
  %37 = tail call ptr @proto_tree_add_item(ptr noundef %23, i32 noundef %36, ptr noundef %0, i32 noundef 12, i32 noundef 2, i32 noundef 0)
  %38 = load i32, ptr @hf_dst_machine_id, align 4
  %39 = tail call ptr @proto_tree_add_item(ptr noundef %23, i32 noundef %38, ptr noundef %0, i32 noundef 14, i32 noundef 2, i32 noundef 0)
  %.not85 = icmp eq i16 %9, 1
  br i1 %.not85, label %45, label %40

40:                                               ; preds = %19
  %41 = load i32, ptr @hf_policy_id, align 4
  %42 = tail call ptr @proto_tree_add_item(ptr noundef %23, i32 noundef %41, ptr noundef %0, i32 noundef 16, i32 noundef 2, i32 noundef 0)
  %43 = load i32, ptr @hf_filler, align 4
  %44 = tail call ptr @proto_tree_add_item(ptr noundef %23, i32 noundef %43, ptr noundef %0, i32 noundef 18, i32 noundef 2, i32 noundef 0)
  br label %45

45:                                               ; preds = %40, %19
  %.082 = phi i32 [ 20, %40 ], [ 16, %19 ]
  %46 = load i32, ptr @hf_payload, align 4
  %47 = tail call ptr @proto_tree_add_item(ptr noundef %23, i32 noundef %46, ptr noundef %0, i32 noundef %.082, i32 noundef -1, i32 noundef 0)
  %48 = tail call ptr @val_to_str(i32 noundef %17, ptr noundef nonnull @opcode_type_vals, ptr noundef nonnull @.str.211)
  tail call void (ptr, ptr, ...) @proto_item_append_text(ptr noundef %47, ptr noundef nonnull @.str.212, ptr noundef %48)
  %49 = load i32, ptr @ett_cphap, align 4
  %50 = tail call ptr @proto_item_add_subtree(ptr noundef %47, i32 noundef %49)
  switch i16 %14, label %60 [
    i16 1, label %51
    i16 2, label %63
    i16 3, label %52
    i16 4, label %52
    i16 5, label %63
    i16 6, label %55
    i16 7, label %56
    i16 9, label %57
  ]

51:                                               ; preds = %45
  tail call fastcc void @dissect_my_state(ptr noundef %0, i32 noundef %.082, ptr noundef %50)
  br label %63

52:                                               ; preds = %45, %45
  %53 = load i32, ptr @hf_ifn, align 4
  %54 = tail call ptr @proto_tree_add_item(ptr noundef %50, i32 noundef %53, ptr noundef %0, i32 noundef range(i32 16, 21) %.082, i32 noundef 4, i32 noundef 0)
  br label %63

55:                                               ; preds = %45
  tail call fastcc void @dissect_conf_reply(ptr noundef %0, i32 noundef %.082, ptr noundef %50)
  br label %63

56:                                               ; preds = %45
  tail call fastcc void @dissect_lb_conf(ptr noundef %0, i32 noundef %.082, ptr noundef %50)
  br label %63

57:                                               ; preds = %45
  %58 = load i32, ptr @hf_status, align 4
  %59 = tail call ptr @proto_tree_add_item(ptr noundef %50, i32 noundef %58, ptr noundef %0, i32 noundef range(i32 16, 21) %.082, i32 noundef 4, i32 noundef 0)
  br label %63

60:                                               ; preds = %45
  %61 = load i32, ptr @hf_unknown_data, align 4
  %62 = tail call ptr @proto_tree_add_item(ptr noundef %50, i32 noundef %61, ptr noundef %0, i32 noundef %.082, i32 noundef -1, i32 noundef 0)
  br label %63

63:                                               ; preds = %45, %45, %51, %52, %55, %56, %57, %60, %10
  %64 = tail call i32 @tvb_reported_length(ptr noundef %0)
  br label %65

65:                                               ; preds = %7, %4, %63
  %.0 = phi i32 [ %64, %63 ], [ 0, %4 ], [ 0, %7 ]
  ret i32 %.0
}